target datalayout = "e-m:e-p270:32:32-p271:32:32-p272:64:64-i64:64-i128:128-f80:128-n8:16:32:64-S128"
target triple = "x86_64-pc-linux-gnu"

@_ZN13MarchingCubes10vertexListE = global [12 x [3 x double]] zeroinitializer, align 16

; Function Attrs: mustprogress nounwind uwtable
define noundef float @_ZN13MarchingCubes11InterpolateEff(float noundef %0, float noundef %1) #1 align 2 {
  %3 = alloca float, align 4
  %4 = alloca float, align 4
  store float %0, ptr %3, align 4
  store float %1, ptr %4, align 4
  %5 = load float, ptr %3, align 4
  %6 = load float, ptr %3, align 4
  %7 = load float, ptr %4, align 4
  %8 = fsub float %6, %7
  %9 = fdiv float %5, %8
  ret float %9
}

; Function Attrs: mustprogress nounwind uwtable
define noundef i32 @_ZN4Cube11CornerIndexEiii(i32 noundef %0, i32 noundef %1, i32 noundef %2) #1 align 2 {
  %4 = alloca i32, align 4
  %5 = alloca i32, align 4
  %6 = alloca i32, align 4
  store i32 %0, ptr %4, align 4
  store i32 %1, ptr %5, align 4
  store i32 %2, ptr %6, align 4
  %7 = load i32, ptr %6, align 4
  %8 = shl i32 %7, 2
  %9 = load i32, ptr %5, align 4
  %10 = shl i32 %9, 1
  %11 = or i32 %8, %10
  %12 = load i32, ptr %4, align 4
  %13 = or i32 %11, %12
  ret i32 %13
}

; Function Attrs: mustprogress nounwind uwtable
define void @_ZN4Cube15FactorEdgeIndexEiRiS0_S0_(i32 noundef %0, ptr noundef nonnull align 4 dereferenceable(4) %1, ptr noundef nonnull align 4 dereferenceable(4) %2, ptr noundef nonnull align 4 dereferenceable(4) %3) #1 align 2 {
  %5 = alloca i32, align 4
  %6 = alloca ptr, align 8
  %7 = alloca ptr, align 8
  %8 = alloca ptr, align 8
  store i32 %0, ptr %5, align 4
  store ptr %1, ptr %6, align 8
  store ptr %2, ptr %7, align 8
  store ptr %3, ptr %8, align 8
  %9 = load i32, ptr %5, align 4
  %10 = ashr i32 %9, 2
  %11 = load ptr, ptr %6, align 8
  store i32 %10, ptr %11, align 4
  %12 = load i32, ptr %5, align 4
  %13 = and i32 %12, 1
  %14 = load ptr, ptr %7, align 8
  store i32 %13, ptr %14, align 4
  %15 = load i32, ptr %5, align 4
  %16 = and i32 %15, 2
  %17 = ashr i32 %16, 1
  %18 = load ptr, ptr %8, align 8
  store i32 %17, ptr %18, align 4
  ret void
}

; Function Attrs: mustprogress uwtable
define void @_ZN13MarchingCubes9SetVertexEiPKff(i32 noundef %0, ptr noundef %1, float noundef %2) #0 align 2 {
  %4 = alloca i32, align 4
  %5 = alloca ptr, align 8
  %6 = alloca float, align 4
  %7 = alloca double, align 8
  %8 = alloca i32, align 4
  %9 = alloca i32, align 4
  %10 = alloca i32, align 4
  store i32 %0, ptr %4, align 4
  store ptr %1, ptr %5, align 8
  store float %2, ptr %6, align 4
  %11 = load i32, ptr %4, align 4
  call void @_ZN4Cube15FactorEdgeIndexEiRiS0_S0_(i32 noundef %11, ptr noundef nonnull align 4 dereferenceable(4) %8, ptr noundef nonnull align 4 dereferenceable(4) %9, ptr noundef nonnull align 4 dereferenceable(4) %10)
  %12 = load i32, ptr %8, align 4
  switch i32 %12, label %127 [
    i32 0, label %13
    i32 1, label %51
    i32 2, label %89
  ]

13:                                               ; preds = %3
  %14 = load ptr, ptr %5, align 8
  %15 = load i32, ptr %9, align 4
  %16 = load i32, ptr %10, align 4
  %17 = call noundef i32 @_ZN4Cube11CornerIndexEiii(i32 noundef 0, i32 noundef %15, i32 noundef %16)
  %18 = sext i32 %17 to i64
  %19 = getelementptr inbounds float, ptr %14, i64 %18
  %20 = load float, ptr %19, align 4
  %21 = load float, ptr %6, align 4
  %22 = fsub float %20, %21
  %23 = load ptr, ptr %5, align 8
  %24 = load i32, ptr %9, align 4
  %25 = load i32, ptr %10, align 4
  %26 = call noundef i32 @_ZN4Cube11CornerIndexEiii(i32 noundef 1, i32 noundef %24, i32 noundef %25)
  %27 = sext i32 %26 to i64
  %28 = getelementptr inbounds float, ptr %23, i64 %27
  %29 = load float, ptr %28, align 4
  %30 = load float, ptr %6, align 4
  %31 = fsub float %29, %30
  %32 = call noundef float @_ZN13MarchingCubes11InterpolateEff(float noundef %22, float noundef %31)
  %33 = fpext float %32 to double
  store double %33, ptr %7, align 8
  %34 = load double, ptr %7, align 8
  %35 = load i32, ptr %4, align 4
  %36 = sext i32 %35 to i64
  %37 = getelementptr inbounds [12 x [3 x double]], ptr @_ZN13MarchingCubes10vertexListE, i64 0, i64 %36
  %38 = getelementptr inbounds [3 x double], ptr %37, i64 0, i64 0
  store double %34, ptr %38, align 8
  %39 = load i32, ptr %9, align 4
  %40 = sitofp i32 %39 to double
  %41 = load i32, ptr %4, align 4
  %42 = sext i32 %41 to i64
  %43 = getelementptr inbounds [12 x [3 x double]], ptr @_ZN13MarchingCubes10vertexListE, i64 0, i64 %42
  %44 = getelementptr inbounds [3 x double], ptr %43, i64 0, i64 1
  store double %40, ptr %44, align 8
  %45 = load i32, ptr %10, align 4
  %46 = sitofp i32 %45 to double
  %47 = load i32, ptr %4, align 4
  %48 = sext i32 %47 to i64
  %49 = getelementptr inbounds [12 x [3 x double]], ptr @_ZN13MarchingCubes10vertexListE, i64 0, i64 %48
  %50 = getelementptr inbounds [3 x double], ptr %49, i64 0, i64 2
  store double %46, ptr %50, align 8
  br label %127

51:                                               ; preds = %3
  %52 = load ptr, ptr %5, align 8
  %53 = load i32, ptr %9, align 4
  %54 = load i32, ptr %10, align 4
  %55 = call noundef i32 @_ZN4Cube11CornerIndexEiii(i32 noundef %53, i32 noundef 0, i32 noundef %54)
  %56 = sext i32 %55 to i64
  %57 = getelementptr inbounds float, ptr %52, i64 %56
  %58 = load float, ptr %57, align 4
  %59 = load float, ptr %6, align 4
  %60 = fsub float %58, %59
  %61 = load ptr, ptr %5, align 8
  %62 = load i32, ptr %9, align 4
  %63 = load i32, ptr %10, align 4
  %64 = call noundef i32 @_ZN4Cube11CornerIndexEiii(i32 noundef %62, i32 noundef 1, i32 noundef %63)
  %65 = sext i32 %64 to i64
  %66 = getelementptr inbounds float, ptr %61, i64 %65
  %67 = load float, ptr %66, align 4
  %68 = load float, ptr %6, align 4
  %69 = fsub float %67, %68
  %70 = call noundef float @_ZN13MarchingCubes11InterpolateEff(float noundef %60, float noundef %69)
  %71 = fpext float %70 to double
  store double %71, ptr %7, align 8
  %72 = load i32, ptr %9, align 4
  %73 = sitofp i32 %72 to double
  %74 = load i32, ptr %4, align 4
  %75 = sext i32 %74 to i64
  %76 = getelementptr inbounds [12 x [3 x double]], ptr @_ZN13MarchingCubes10vertexListE, i64 0, i64 %75
  %77 = getelementptr inbounds [3 x double], ptr %76, i64 0, i64 0
  store double %73, ptr %77, align 8
  %78 = load double, ptr %7, align 8
  %79 = load i32, ptr %4, align 4
  %80 = sext i32 %79 to i64
  %81 = getelementptr inbounds [12 x [3 x double]], ptr @_ZN13MarchingCubes10vertexListE, i64 0, i64 %80
  %82 = getelementptr inbounds [3 x double], ptr %81, i64 0, i64 1
  store double %78, ptr %82, align 8
  %83 = load i32, ptr %10, align 4
  %84 = sitofp i32 %83 to double
  %85 = load i32, ptr %4, align 4
  %86 = sext i32 %85 to i64
  %87 = getelementptr inbounds [12 x [3 x double]], ptr @_ZN13MarchingCubes10vertexListE, i64 0, i64 %86
  %88 = getelementptr inbounds [3 x double], ptr %87, i64 0, i64 2
  store double %84, ptr %88, align 8
  br label %127

89:                                               ; preds = %3
  %90 = load ptr, ptr %5, align 8
  %91 = load i32, ptr %9, align 4
  %92 = load i32, ptr %10, align 4
  %93 = call noundef i32 @_ZN4Cube11CornerIndexEiii(i32 noundef %91, i32 noundef %92, i32 noundef 0)
  %94 = sext i32 %93 to i64
  %95 = getelementptr inbounds float, ptr %90, i64 %94
  %96 = load float, ptr %95, align 4
  %97 = load float, ptr %6, align 4
  %98 = fsub float %96, %97
  %99 = load ptr, ptr %5, align 8
  %100 = load i32, ptr %9, align 4
  %101 = load i32, ptr %10, align 4
  %102 = call noundef i32 @_ZN4Cube11CornerIndexEiii(i32 noundef %100, i32 noundef %101, i32 noundef 1)
  %103 = sext i32 %102 to i64
  %104 = getelementptr inbounds float, ptr %99, i64 %103
  %105 = load float, ptr %104, align 4
  %106 = load float, ptr %6, align 4
  %107 = fsub float %105, %106
  %108 = call noundef float @_ZN13MarchingCubes11InterpolateEff(float noundef %98, float noundef %107)
  %109 = fpext float %108 to double
  store double %109, ptr %7, align 8
  %110 = load i32, ptr %9, align 4
  %111 = sitofp i32 %110 to double
  %112 = load i32, ptr %4, align 4
  %113 = sext i32 %112 to i64
  %114 = getelementptr inbounds [12 x [3 x double]], ptr @_ZN13MarchingCubes10vertexListE, i64 0, i64 %113
  %115 = getelementptr inbounds [3 x double], ptr %114, i64 0, i64 0
  store double %111, ptr %115, align 8
  %116 = load i32, ptr %10, align 4
  %117 = sitofp i32 %116 to double
  %118 = load i32, ptr %4, align 4
  %119 = sext i32 %118 to i64
  %120 = getelementptr inbounds [12 x [3 x double]], ptr @_ZN13MarchingCubes10vertexListE, i64 0, i64 %119
  %121 = getelementptr inbounds [3 x double], ptr %120, i64 0, i64 1
  store double %117, ptr %121, align 8
  %122 = load double, ptr %7, align 8
  %123 = load i32, ptr %4, align 4
  %124 = sext i32 %123 to i64
  %125 = getelementptr inbounds [12 x [3 x double]], ptr @_ZN13MarchingCubes10vertexListE, i64 0, i64 %124
  %126 = getelementptr inbounds [3 x double], ptr %125, i64 0, i64 2
  store double %122, ptr %126, align 8
  br label %127

127:                                              ; preds = %89, %51, %13, %3
  ret void
}