; Function Attrs: mustprogress nofree norecurse nosync nounwind willreturn memory(write, argmem: read, inaccessiblemem: none) uwtable
define void @_ZN13MarchingCubes9SetVertexEiPKff(i32 noundef %0, ptr noundef readonly captures(none) %1, float noundef %2) local_unnamed_addr #4 align 2 {
  %4 = ashr i32 %0, 2
  %5 = and i32 %0, 1
  %6 = lshr i32 %0, 1
  %7 = and i32 %6, 1
  switch i32 %4, label %68 [
    i32 0, label %8
    i32 1, label %29
    i32 2, label %49
  ]

8:                                                ; preds = %3
  %9 = shl nuw nsw i32 %7, 2
  %10 = shl nuw nsw i32 %5, 1
  %11 = or disjoint i32 %9, %10
  %12 = zext nneg i32 %11 to i64
  %13 = getelementptr inbounds nuw float, ptr %1, i64 %12
  %14 = load float, ptr %13, align 4
  %15 = fsub float %14, %2
  %16 = or disjoint i32 %11, 1
  %17 = zext nneg i32 %16 to i64
  %18 = getelementptr inbounds nuw float, ptr %1, i64 %17
  %19 = load float, ptr %18, align 4
  %20 = fsub float %19, %2
  %21 = fsub float %15, %20
  %22 = fdiv float %15, %21
  %23 = fpext float %22 to double
  %24 = sext i32 %0 to i64
  %25 = getelementptr inbounds [12 x [3 x double]], ptr @_ZN13MarchingCubes10vertexListE, i64 0, i64 %24
  store double %23, ptr %25, align 8
  %26 = uitofp nneg i32 %5 to double
  %27 = getelementptr inbounds nuw i8, ptr %25, i64 8
  store double %26, ptr %27, align 8
  %28 = uitofp nneg i32 %7 to double
  br label %.sink.split

29:                                               ; preds = %3
  %30 = shl nuw nsw i32 %7, 2
  %31 = or disjoint i32 %30, %5
  %32 = zext nneg i32 %31 to i64
  %33 = getelementptr inbounds nuw float, ptr %1, i64 %32
  %34 = load float, ptr %33, align 4
  %35 = fsub float %34, %2
  %36 = or disjoint i32 %31, 2
  %37 = zext nneg i32 %36 to i64
  %38 = getelementptr inbounds nuw float, ptr %1, i64 %37
  %39 = load float, ptr %38, align 4
  %40 = fsub float %39, %2
  %41 = fsub float %35, %40
  %42 = fdiv float %35, %41
  %43 = fpext float %42 to double
  %44 = uitofp nneg i32 %5 to double
  %45 = sext i32 %0 to i64
  %46 = getelementptr inbounds [12 x [3 x double]], ptr @_ZN13MarchingCubes10vertexListE, i64 0, i64 %45
  store double %44, ptr %46, align 8
  %47 = getelementptr inbounds nuw i8, ptr %46, i64 8
  store double %43, ptr %47, align 8
  %48 = uitofp nneg i32 %7 to double
  br label %.sink.split

49:                                               ; preds = %3
  %urem = and i32 %0, 3
  %50 = zext nneg i32 %urem to i64
  %51 = getelementptr inbounds nuw float, ptr %1, i64 %50
  %52 = load float, ptr %51, align 4
  %53 = fsub float %52, %2
  %54 = or disjoint i32 %urem, 4
  %55 = zext nneg i32 %54 to i64
  %56 = getelementptr inbounds nuw float, ptr %1, i64 %55
  %57 = load float, ptr %56, align 4
  %58 = fsub float %57, %2
  %59 = fsub float %53, %58
  %60 = fdiv float %53, %59
  %61 = fpext float %60 to double
  %62 = uitofp nneg i32 %5 to double
  %63 = sext i32 %0 to i64
  %64 = getelementptr inbounds [12 x [3 x double]], ptr @_ZN13MarchingCubes10vertexListE, i64 0, i64 %63
  store double %62, ptr %64, align 8
  %65 = uitofp nneg i32 %7 to double
  %66 = getelementptr inbounds nuw i8, ptr %64, i64 8
  store double %65, ptr %66, align 8
  br label %.sink.split

.sink.split:                                      ; preds = %8, %29, %49
  %.sink43 = phi ptr [ %64, %49 ], [ %46, %29 ], [ %25, %8 ]
  %.sink = phi double [ %61, %49 ], [ %48, %29 ], [ %28, %8 ]
  %67 = getelementptr inbounds nuw i8, ptr %.sink43, i64 16
  store double %.sink, ptr %67, align 8
  br label %68

68:                                               ; preds = %.sink.split, %3
  ret void
}